; Function Attrs: mustprogress uwtable
define hidden void @_ZN6google8protobuf37EnumDescriptorProto_EnumReservedRange8CopyFromERKS1_(ptr noundef nonnull align 8 dereferenceable(32) %0, ptr noundef nonnull readonly align 8 dereferenceable(32) %1) local_unnamed_addr #3 align 2 personality ptr @__gxx_personality_v0 {
  %3 = icmp eq ptr %1, %0
  br i1 %3, label %_ZN6google8protobuf37EnumDescriptorProto_EnumReservedRange9MergeFromERKS1_.exit, label %4

4:                                                ; preds = %2
  %5 = getelementptr inbounds nuw i8, ptr %0, i64 16
  %6 = load i32, ptr %5, align 8, !tbaa !58
  %7 = and i32 %6, 3
  %.not.i = icmp eq i32 %7, 0
  br i1 %.not.i, label %10, label %8

8:                                                ; preds = %4
  %9 = getelementptr inbounds nuw i8, ptr %0, i64 24
  store i64 0, ptr %9, align 8
  br label %10

10:                                               ; preds = %8, %4
  store i32 0, ptr %5, align 8
  %11 = getelementptr inbounds nuw i8, ptr %0, i64 8
  %12 = load i64, ptr %11, align 8, !tbaa !8
  %13 = and i64 %12, 1
  %.not1.i = icmp eq i64 %13, 0
  br i1 %.not1.i, label %_ZN6google8protobuf37EnumDescriptorProto_EnumReservedRange5ClearEv.exit, label %14

14:                                               ; preds = %10
  tail call void @_ZN6google8protobuf8internal16InternalMetadata7DoClearINS0_15UnknownFieldSetEEEvv(ptr noundef nonnull align 8 dereferenceable(8) %11)
  br label %_ZN6google8protobuf37EnumDescriptorProto_EnumReservedRange5ClearEv.exit

_ZN6google8protobuf37EnumDescriptorProto_EnumReservedRange5ClearEv.exit: ; preds = %10, %14
  %15 = getelementptr inbounds nuw i8, ptr %1, i64 16
  %16 = load i32, ptr %15, align 8, !tbaa !58
  %17 = and i32 %16, 3
  %.not.i4 = icmp eq i32 %17, 0
  br i1 %.not.i4, label %33, label %18

18:                                               ; preds = %_ZN6google8protobuf37EnumDescriptorProto_EnumReservedRange5ClearEv.exit
  %19 = and i32 %16, 1
  %.not8.i = icmp eq i32 %19, 0
  br i1 %.not8.i, label %24, label %20

20:                                               ; preds = %18
  %21 = getelementptr inbounds nuw i8, ptr %1, i64 24
  %22 = load i32, ptr %21, align 8, !tbaa !295
  %23 = getelementptr inbounds nuw i8, ptr %0, i64 24
  store i32 %22, ptr %23, align 8, !tbaa !295
  br label %24

24:                                               ; preds = %20, %18
  %25 = and i32 %16, 2
  %.not9.i = icmp eq i32 %25, 0
  br i1 %.not9.i, label %30, label %26

26:                                               ; preds = %24
  %27 = getelementptr inbounds nuw i8, ptr %1, i64 28
  %28 = load i32, ptr %27, align 4, !tbaa !297
  %29 = getelementptr inbounds nuw i8, ptr %0, i64 28
  store i32 %28, ptr %29, align 4, !tbaa !297
  br label %30

30:                                               ; preds = %26, %24
  %31 = load i32, ptr %5, align 8, !tbaa !58
  %32 = or i32 %31, %16
  store i32 %32, ptr %5, align 8, !tbaa !58
  br label %33

33:                                               ; preds = %30, %_ZN6google8protobuf37EnumDescriptorProto_EnumReservedRange5ClearEv.exit
  %34 = getelementptr inbounds nuw i8, ptr %1, i64 8
  %35 = load i64, ptr %34, align 8, !tbaa !8
  %36 = and i64 %35, 1
  %.not10.i = icmp eq i64 %36, 0
  br i1 %.not10.i, label %_ZN6google8protobuf37EnumDescriptorProto_EnumReservedRange9MergeFromERKS1_.exit, label %_ZNK6google8protobuf8internal16InternalMetadata14unknown_fieldsINS0_15UnknownFieldSetEEERKT_PFS7_vE.exit.i

_ZNK6google8protobuf8internal16InternalMetadata14unknown_fieldsINS0_15UnknownFieldSetEEERKT_PFS7_vE.exit.i: ; preds = %33
  %37 = and i64 %35, -4
  %38 = inttoptr i64 %37 to ptr
  %39 = getelementptr inbounds nuw i8, ptr %38, i64 8
  tail call void @_ZN6google8protobuf8internal16InternalMetadata11DoMergeFromINS0_15UnknownFieldSetEEEvRKT_(ptr noundef nonnull align 8 dereferenceable(8) %11, ptr noundef nonnull align 8 dereferenceable(24) %39)
  br label %_ZN6google8protobuf37EnumDescriptorProto_EnumReservedRange9MergeFromERKS1_.exit

_ZN6google8protobuf37EnumDescriptorProto_EnumReservedRange9MergeFromERKS1_.exit: ; preds = %_ZNK6google8protobuf8internal16InternalMetadata14unknown_fieldsINS0_15UnknownFieldSetEEERKT_PFS7_vE.exit.i, %33, %2
  ret void
}